; Function Attrs: mustprogress uwtable
define void @_ZN7rocksdb23AppendInternalKeyFooterEPNSt7__cxx1112basic_stringIcSt11char_traitsIcESaIcEEEmNS_9ValueTypeE(ptr noundef %0, i64 noundef %1, i8 noundef zeroext %2) local_unnamed_addr #4 personality ptr @__gxx_personality_v0 {
  %4 = alloca i64, align 8
  %5 = shl i64 %1, 8
  %6 = zext i8 %2 to i64
  %7 = or disjoint i64 %5, %6
  call void @llvm.lifetime.start.p0(i64 8, ptr nonnull %4)
  store i64 %7, ptr %4, align 8, !tbaa !19
  %8 = getelementptr inbounds nuw i8, ptr %0, i64 8
  %9 = load i64, ptr %8, align 8, !tbaa !11
  %10 = and i64 %9, -8
  %11 = icmp eq i64 %10, 4611686018427387896
  br i1 %11, label %12, label %_ZN7rocksdb10PutFixed64EPNSt7__cxx1112basic_stringIcSt11char_traitsIcESaIcEEEm.exit

12:                                               ; preds = %3
  tail call void @_ZSt20__throw_length_errorPKc(ptr noundef nonnull @.str.11) #19
  unreachable

_ZN7rocksdb10PutFixed64EPNSt7__cxx1112basic_stringIcSt11char_traitsIcESaIcEEEm.exit: ; preds = %3
  %13 = call noundef nonnull align 8 dereferenceable(32) ptr @_ZNSt7__cxx1112basic_stringIcSt11char_traitsIcESaIcEE9_M_appendEPKcm(ptr noundef nonnull align 8 dereferenceable(32) %0, ptr noundef nonnull %4, i64 noundef 8)
  call void @llvm.lifetime.end.p0(i64 8, ptr nonnull %4)
  ret void
}